target datalayout = "e-m:e-p270:32:32-p271:32:32-p272:64:64-i64:64-i128:128-f80:128-n8:16:32:64-S128"
target triple = "x86_64-pc-linux-gnu"

@PyExc_TypeError = external global ptr, align 8
@.str.9 = private unnamed_addr constant [43 x i8] c"my_float_sum expected 2 arguments, got %zd\00", align 1

; Function Attrs: nounwind uwtable
define internal float @my_float_sum_impl(ptr noundef %0, float noundef %1, float noundef %2) #0 {
  %4 = alloca ptr, align 8
  %5 = alloca float, align 4
  %6 = alloca float, align 4
  store ptr %0, ptr %4, align 8, !tbaa !3
  store float %1, ptr %5, align 4, !tbaa !14
  store float %2, ptr %6, align 4, !tbaa !14
  %7 = load float, ptr %5, align 4, !tbaa !14
  %8 = load float, ptr %6, align 4, !tbaa !14
  %9 = fadd float %7, %8
  ret float %9
}

; Function Attrs: nounwind uwtable
define internal ptr @my_float_sum(ptr noundef %0, ptr noundef %1, i64 noundef %2) #0 {
  %4 = alloca ptr, align 8
  %5 = alloca ptr, align 8
  %6 = alloca i64, align 8
  %7 = alloca ptr, align 8
  %8 = alloca float, align 4
  %9 = alloca float, align 4
  %10 = alloca float, align 4
  store ptr %0, ptr %4, align 8, !tbaa !3
  store ptr %1, ptr %5, align 8, !tbaa !10
  store i64 %2, ptr %6, align 8, !tbaa !12
  call void @llvm.lifetime.start.p0(i64 8, ptr %7) #3
  store ptr null, ptr %7, align 8, !tbaa !3
  call void @llvm.lifetime.start.p0(i64 4, ptr %8) #3
  call void @llvm.lifetime.start.p0(i64 4, ptr %9) #3
  call void @llvm.lifetime.start.p0(i64 4, ptr %10) #3
  %11 = load i64, ptr %6, align 8, !tbaa !12
  %12 = icmp ne i64 %11, 2
  br i1 %12, label %13, label %17

13:                                               ; preds = %3
  %14 = load ptr, ptr @PyExc_TypeError, align 8, !tbaa !3
  %15 = load i64, ptr %6, align 8, !tbaa !12
  %16 = call ptr (ptr, ptr, ...) @PyErr_Format(ptr noundef %14, ptr noundef @.str.9, i64 noundef %15)
  br label %59

17:                                               ; preds = %3
  %18 = load ptr, ptr %5, align 8, !tbaa !10
  %19 = getelementptr ptr, ptr %18, i64 0
  %20 = load ptr, ptr %19, align 8, !tbaa !3
  %21 = call double @PyFloat_AsDouble(ptr noundef %20)
  %22 = fptrunc double %21 to float
  store float %22, ptr %8, align 4, !tbaa !14
  %23 = load float, ptr %8, align 4, !tbaa !14
  %24 = fpext float %23 to double
  %25 = fcmp oeq double %24, -1.000000e+00
  br i1 %25, label %26, label %30

26:                                               ; preds = %17
  %27 = call ptr @PyErr_Occurred()
  %28 = icmp ne ptr %27, null
  br i1 %28, label %29, label %30

29:                                               ; preds = %26
  br label %59

30:                                               ; preds = %26, %17
  %31 = load ptr, ptr %5, align 8, !tbaa !10
  %32 = getelementptr ptr, ptr %31, i64 1
  %33 = load ptr, ptr %32, align 8, !tbaa !3
  %34 = call double @PyFloat_AsDouble(ptr noundef %33)
  %35 = fptrunc double %34 to float
  store float %35, ptr %9, align 4, !tbaa !14
  %36 = load float, ptr %9, align 4, !tbaa !14
  %37 = fpext float %36 to double
  %38 = fcmp oeq double %37, -1.000000e+00
  br i1 %38, label %39, label %43

39:                                               ; preds = %30
  %40 = call ptr @PyErr_Occurred()
  %41 = icmp ne ptr %40, null
  br i1 %41, label %42, label %43

42:                                               ; preds = %39
  br label %59

43:                                               ; preds = %39, %30
  %44 = load ptr, ptr %4, align 8, !tbaa !3
  %45 = load float, ptr %8, align 4, !tbaa !14
  %46 = load float, ptr %9, align 4, !tbaa !14
  %47 = call float @my_float_sum_impl(ptr noundef %44, float noundef %45, float noundef %46)
  store float %47, ptr %10, align 4, !tbaa !14
  %48 = load float, ptr %10, align 4, !tbaa !14
  %49 = fpext float %48 to double
  %50 = fcmp oeq double %49, -1.000000e+00
  br i1 %50, label %51, label %55

51:                                               ; preds = %43
  %52 = call ptr @PyErr_Occurred()
  %53 = icmp ne ptr %52, null
  br i1 %53, label %54, label %55

54:                                               ; preds = %51
  br label %59

55:                                               ; preds = %51, %43
  %56 = load float, ptr %10, align 4, !tbaa !14
  %57 = fpext float %56 to double
  %58 = call ptr @PyFloat_FromDouble(double noundef %57)
  store ptr %58, ptr %7, align 8, !tbaa !3
  br label %59

59:                                               ; preds = %55, %54, %42, %29, %13
  %60 = load ptr, ptr %7, align 8, !tbaa !3
  call void @llvm.lifetime.end.p0(i64 4, ptr %10) #3
  call void @llvm.lifetime.end.p0(i64 4, ptr %9) #3
  call void @llvm.lifetime.end.p0(i64 4, ptr %8) #3
  call void @llvm.lifetime.end.p0(i64 8, ptr %7) #3
  ret ptr %60
}