; Function Attrs: nounwind uwtable
define internal ptr @my_float_sum(ptr readnone captures(none) %0, ptr noundef readonly captures(none) %1, i64 noundef %2) #0 {
  %.not = icmp eq i64 %2, 2
  br i1 %.not, label %7, label %4

4:                                                ; preds = %3
  %5 = load ptr, ptr @PyExc_TypeError, align 8, !tbaa !3
  %6 = tail call ptr (ptr, ptr, ...) @PyErr_Format(ptr noundef %5, ptr noundef nonnull @.str.9, i64 noundef %2) #2
  br label %30

7:                                                ; preds = %3
  %8 = load ptr, ptr %1, align 8, !tbaa !3
  %9 = tail call double @PyFloat_AsDouble(ptr noundef %8) #2
  %10 = fptrunc double %9 to float
  %11 = fcmp oeq float %10, -1.000000e+00
  br i1 %11, label %12, label %14

12:                                               ; preds = %7
  %13 = tail call ptr @PyErr_Occurred() #2
  %.not12 = icmp eq ptr %13, null
  br i1 %.not12, label %14, label %30

14:                                               ; preds = %12, %7
  %15 = getelementptr i8, ptr %1, i64 8
  %16 = load ptr, ptr %15, align 8, !tbaa !3
  %17 = tail call double @PyFloat_AsDouble(ptr noundef %16) #2
  %18 = fptrunc double %17 to float
  %19 = fcmp oeq float %18, -1.000000e+00
  br i1 %19, label %20, label %22

20:                                               ; preds = %14
  %21 = tail call ptr @PyErr_Occurred() #2
  %.not13 = icmp eq ptr %21, null
  br i1 %.not13, label %22, label %30

22:                                               ; preds = %20, %14
  %23 = fadd float %10, %18
  %24 = fpext float %23 to double
  %25 = fcmp oeq float %23, -1.000000e+00
  br i1 %25, label %26, label %28

26:                                               ; preds = %22
  %27 = tail call ptr @PyErr_Occurred() #2
  %.not14 = icmp eq ptr %27, null
  br i1 %.not14, label %28, label %30

28:                                               ; preds = %26, %22
  %29 = tail call ptr @PyFloat_FromDouble(double noundef %24) #2
  br label %30

30:                                               ; preds = %26, %20, %12, %28, %4
  %.0 = phi ptr [ null, %4 ], [ null, %12 ], [ null, %20 ], [ null, %26 ], [ %29, %28 ]
  ret ptr %.0
}